; Function Attrs: mustprogress uwtable
define noundef i32 @_ZNK10OpenSubdiv6v3_6_03Far15TopologyRefiner21GetNumFVarValuesTotalEi(ptr nocapture noundef nonnull readonly align 8 dereferenceable(120) %0, i32 noundef %1) local_unnamed_addr #0 align 2 {
  %3 = getelementptr inbounds nuw i8, ptr %0, i64 48
  %4 = getelementptr inbounds i8, ptr %0, i64 56
  %5 = load ptr, ptr %4, align 8
  %6 = load ptr, ptr %3, align 8
  %7 = ptrtoint ptr %5 to i64
  %8 = ptrtoint ptr %6 to i64
  %9 = sub i64 %7, %8
  %10 = lshr exact i64 %9, 3
  %11 = trunc i64 %10 to i32
  %12 = icmp sgt i32 %11, 0
  br i1 %12, label %.lr.ph, label %._crit_edge

.lr.ph:                                           ; preds = %2, %.lr.ph
  %indvars.iv = phi i64 [ %indvars.iv.next, %.lr.ph ], [ 0, %2 ]
  %13 = phi ptr [ %19, %.lr.ph ], [ %6, %2 ]
  %.067 = phi i32 [ %17, %.lr.ph ], [ 0, %2 ]
  %14 = getelementptr inbounds ptr, ptr %13, i64 %indvars.iv
  %15 = load ptr, ptr %14, align 8
  %16 = tail call noundef i32 @_ZNK10OpenSubdiv6v3_6_03Vtr8internal5Level16getNumFVarValuesEi(ptr noundef nonnull align 8 dereferenceable(480) %15, i32 noundef %1)
  %17 = add nsw i32 %16, %.067
  %indvars.iv.next = add nuw nsw i64 %indvars.iv, 1
  %18 = load ptr, ptr %4, align 8
  %19 = load ptr, ptr %3, align 8
  %20 = ptrtoint ptr %18 to i64
  %21 = ptrtoint ptr %19 to i64
  %22 = sub i64 %20, %21
  %sext = shl i64 %22, 29
  %23 = ashr i64 %sext, 32
  %24 = icmp slt i64 %indvars.iv.next, %23
  br i1 %24, label %.lr.ph, label %._crit_edge, !llvm.loop !24

._crit_edge:                                      ; preds = %.lr.ph, %2
  %.06.lcssa = phi i32 [ 0, %2 ], [ %17, %.lr.ph ]
  ret i32 %.06.lcssa
}